; Function Attrs: nounwind uwtable
define noundef ptr @tng_compress_vel_float(ptr noundef readonly captures(none) %0, i32 noundef %1, i32 noundef %2, float noundef %3, i32 noundef %4, ptr noundef captures(none) %5, ptr noundef writeonly captures(none) %6) local_unnamed_addr #0 {
  %8 = alloca i64, align 8
  %9 = alloca i64, align 8
  %10 = mul i32 %1, 3
  %11 = mul i32 %10, %2
  %12 = sext i32 %11 to i64
  %13 = shl nsw i64 %12, 2
  %14 = tail call noalias ptr @malloc(i64 noundef %13) #12
  call void @llvm.lifetime.start.p0(i64 8, ptr nonnull %8) #13
  call void @llvm.lifetime.start.p0(i64 8, ptr nonnull %9) #13
  %15 = fpext float %3 to double
  call void @Ptngc_d_to_i32x2(double noundef %15, ptr noundef nonnull %8, ptr noundef nonnull %9) #13
  %16 = load i64, ptr %8, align 8, !tbaa !18
  %17 = load i64, ptr %9, align 8, !tbaa !18
  %18 = call double @Ptngc_i32x2_to_d(i64 noundef %16, i64 noundef %17) #13
  %19 = fptrunc double %18 to float
  %20 = icmp sgt i32 %2, 0
  %21 = icmp sgt i32 %1, 0
  %or.cond.i = and i1 %21, %20
  br i1 %or.cond.i, label %.preheader27.us.preheader.i, label %.loopexit

.preheader27.us.preheader.i:                      ; preds = %7
  %22 = zext nneg i32 %1 to i64
  %wide.trip.count42.i = zext nneg i32 %2 to i64
  br label %.preheader27.us.i

.preheader27.us.i:                                ; preds = %._crit_edge.us.i, %.preheader27.us.preheader.i
  %indvars.iv39.i = phi i64 [ 0, %.preheader27.us.preheader.i ], [ %indvars.iv.next40.i, %._crit_edge.us.i ]
  %23 = mul nuw nsw i64 %indvars.iv39.i, %22
  br label %.preheader.us.i

24:                                               ; preds = %25
  %indvars.iv.next36.i = add nuw nsw i64 %indvars.iv35.i, 1
  %exitcond38.not.i = icmp eq i64 %indvars.iv.next36.i, %22
  br i1 %exitcond38.not.i, label %._crit_edge.us.i, label %.preheader.us.i, !llvm.loop !28

25:                                               ; preds = %.preheader.us.i, %25
  %indvars.iv.i = phi i64 [ 0, %.preheader.us.i ], [ %indvars.iv.next.i, %25 ]
  %26 = add nsw i64 %indvars.iv.i, %36
  %27 = getelementptr inbounds float, ptr %0, i64 %26
  %28 = load float, ptr %27, align 4, !tbaa !29
  %29 = fdiv float %28, %19
  %30 = fpext float %29 to double
  %31 = fadd double %30, 5.000000e-01
  %32 = call double @llvm.floor.f64(double %31)
  %33 = fptosi double %32 to i32
  %34 = getelementptr inbounds i32, ptr %14, i64 %26
  store i32 %33, ptr %34, align 4, !tbaa !3
  %indvars.iv.next.i = add nuw nsw i64 %indvars.iv.i, 1
  %exitcond.not.i = icmp eq i64 %indvars.iv.next.i, 3
  br i1 %exitcond.not.i, label %24, label %25, !llvm.loop !31

.preheader.us.i:                                  ; preds = %24, %.preheader27.us.i
  %indvars.iv35.i = phi i64 [ 0, %.preheader27.us.i ], [ %indvars.iv.next36.i, %24 ]
  %35 = add nuw nsw i64 %indvars.iv35.i, %23
  %sext.i = mul i64 %35, 12884901888
  %36 = ashr exact i64 %sext.i, 32
  br label %25

._crit_edge.us.i:                                 ; preds = %24
  %indvars.iv.next40.i = add nuw nsw i64 %indvars.iv39.i, 1
  %exitcond43.not.i = icmp eq i64 %indvars.iv.next40.i, %wide.trip.count42.i
  br i1 %exitcond43.not.i, label %.preheader18.us.i.i, label %.preheader27.us.i, !llvm.loop !32

.preheader18.us.i.i:                              ; preds = %._crit_edge.us.i, %._crit_edge.us.i.i
  %indvars.iv30.i.i = phi i64 [ %indvars.iv.next31.i.i, %._crit_edge.us.i.i ], [ 0, %._crit_edge.us.i ]
  %37 = mul nuw nsw i64 %indvars.iv30.i.i, %22
  br label %.preheader.us.i.i

38:                                               ; preds = %40
  %indvars.iv.next.i.i = add nuw nsw i64 %indvars.iv.i.i, 1
  %exitcond.not.i.i = icmp eq i64 %indvars.iv.next.i.i, 3
  br i1 %exitcond.not.i.i, label %39, label %40, !llvm.loop !33

39:                                               ; preds = %38
  %indvars.iv.next27.i.i = add nuw nsw i64 %indvars.iv26.i.i, 1
  %exitcond29.not.i.i = icmp eq i64 %indvars.iv.next27.i.i, %22
  br i1 %exitcond29.not.i.i, label %._crit_edge.us.i.i, label %.preheader.us.i.i, !llvm.loop !34

40:                                               ; preds = %.preheader.us.i.i, %38
  %indvars.iv.i.i = phi i64 [ 0, %.preheader.us.i.i ], [ %indvars.iv.next.i.i, %38 ]
  %gep.i.i = getelementptr float, ptr %invariant.gep.i.i, i64 %indvars.iv.i.i
  %41 = load float, ptr %gep.i.i, align 4, !tbaa !29
  %42 = fdiv float %41, %19
  %43 = fpext float %42 to double
  %44 = fadd double %43, 5.000000e-01
  %45 = call double @llvm.fabs.f64(double %44)
  %46 = fcmp ult double %45, 0x41DFFFFFFFC00000
  br i1 %46, label %38, label %quantize_float.exit

.preheader.us.i.i:                                ; preds = %39, %.preheader18.us.i.i
  %indvars.iv26.i.i = phi i64 [ 0, %.preheader18.us.i.i ], [ %indvars.iv.next27.i.i, %39 ]
  %47 = add nuw nsw i64 %indvars.iv26.i.i, %37
  %sext.i.i = mul i64 %47, 12884901888
  %48 = ashr exact i64 %sext.i.i, 30
  %invariant.gep.i.i = getelementptr i8, ptr %0, i64 %48
  br label %40

._crit_edge.us.i.i:                               ; preds = %39
  %indvars.iv.next31.i.i = add nuw nsw i64 %indvars.iv30.i.i, 1
  %exitcond34.not.i.i = icmp eq i64 %indvars.iv.next31.i.i, %wide.trip.count42.i
  br i1 %exitcond34.not.i.i, label %.loopexit, label %.preheader18.us.i.i, !llvm.loop !35

.loopexit:                                        ; preds = %._crit_edge.us.i.i, %7
  %49 = load i64, ptr %8, align 8, !tbaa !18
  %50 = load i64, ptr %9, align 8, !tbaa !18
  %51 = call ptr @tng_compress_vel_int(ptr noundef %14, i32 noundef %1, i32 noundef %2, i64 noundef %49, i64 noundef %50, i32 noundef %4, ptr noundef %5, ptr noundef %6)
  br label %quantize_float.exit

quantize_float.exit:                              ; preds = %40, %.loopexit
  %.0 = phi ptr [ %51, %.loopexit ], [ null, %40 ]
  call void @free(ptr noundef %14) #13
  call void @llvm.lifetime.end.p0(i64 8, ptr nonnull %9) #13
  call void @llvm.lifetime.end.p0(i64 8, ptr nonnull %8) #13
  ret ptr %.0
}